(dp1
S'session'
p2
(dp3
S'test'
p4
S'this string came from the session'
p5
sS'_accessed_time'
p6
F1445619939.58443
sVmatthewmarji@gmail.com
p7
V109344367360324467038
p8
sS'_creation_time'
p9
F1445615709.192451
ss.