(dp1
S'session'
p2
(dp3
S'test'
p4
S'this string came from the session'
p5
sVmatthewmarji@gmail.com
p6
V109344367360324467038
p7
sS'_accessed_time'
p8
F1445617909.2543111
sS'_creation_time'
p9
F1445615709.192451
ss.