(dp1
S'session'
p2
(dp3
Vnikimrvelj@gmail.com
p4
V107497090892950623023
p5
sVmuntaha.sakhi@gmail.com
p6
V108473787750610665185
p7
sS'_accessed_time'
p8
F1445802686.000977
sS'_creation_time'
p9
F1445621979.564642
sVnicokulas@gmail.com
p10
V117844139870426487352
p11
ss.